target datalayout = "e-m:e-p270:32:32-p271:32:32-p272:64:64-i64:64-i128:128-f80:128-n8:16:32:64-S128"
target triple = "x86_64-pc-linux-gnu"

%struct.SDL_BlitInfo = type { ptr, ptr, i32, i32, i32, i32, ptr, ptr, i32, i32, i32, i32, ptr, ptr, ptr, ptr, ptr, ptr, i32, i32, i8, i8, i8, i8 }

; Function Attrs: nounwind uwtable
define internal void @SDL_Blit_XRGB8888_ABGR8888_Modulate_Scale(ptr noundef %0) #0 {
  %2 = alloca ptr, align 8
  %3 = alloca i32, align 4
  %4 = alloca i32, align 4
  %5 = alloca i32, align 4
  %6 = alloca i32, align 4
  %7 = alloca i32, align 4
  %8 = alloca i32, align 4
  %9 = alloca i32, align 4
  %10 = alloca i32, align 4
  %11 = alloca i32, align 4
  %12 = alloca i32, align 4
  %13 = alloca i64, align 8
  %14 = alloca i64, align 8
  %15 = alloca i64, align 8
  %16 = alloca i64, align 8
  %17 = alloca i64, align 8
  %18 = alloca i64, align 8
  %19 = alloca ptr, align 8
  %20 = alloca ptr, align 8
  %21 = alloca i32, align 4
  %22 = alloca i16, align 2
  %23 = alloca i16, align 2
  %24 = alloca i16, align 2
  store ptr %0, ptr %2, align 8
  call void @llvm.lifetime.start.p0(i64 4, ptr %3) #2
  %25 = load ptr, ptr %2, align 8
  %26 = getelementptr inbounds nuw %struct.SDL_BlitInfo, ptr %25, i32 0, i32 18
  %27 = load i32, ptr %26, align 8
  store i32 %27, ptr %3, align 4
  call void @llvm.lifetime.start.p0(i64 4, ptr %4) #2
  %28 = load ptr, ptr %2, align 8
  %29 = getelementptr inbounds nuw %struct.SDL_BlitInfo, ptr %28, i32 0, i32 20
  %30 = load i8, ptr %29, align 8
  %31 = zext i8 %30 to i32
  store i32 %31, ptr %4, align 4
  call void @llvm.lifetime.start.p0(i64 4, ptr %5) #2
  %32 = load ptr, ptr %2, align 8
  %33 = getelementptr inbounds nuw %struct.SDL_BlitInfo, ptr %32, i32 0, i32 21
  %34 = load i8, ptr %33, align 1
  %35 = zext i8 %34 to i32
  store i32 %35, ptr %5, align 4
  call void @llvm.lifetime.start.p0(i64 4, ptr %6) #2
  %36 = load ptr, ptr %2, align 8
  %37 = getelementptr inbounds nuw %struct.SDL_BlitInfo, ptr %36, i32 0, i32 22
  %38 = load i8, ptr %37, align 2
  %39 = zext i8 %38 to i32
  store i32 %39, ptr %6, align 4
  call void @llvm.lifetime.start.p0(i64 4, ptr %7) #2
  %40 = load ptr, ptr %2, align 8
  %41 = getelementptr inbounds nuw %struct.SDL_BlitInfo, ptr %40, i32 0, i32 23
  %42 = load i8, ptr %41, align 1
  %43 = zext i8 %42 to i32
  store i32 %43, ptr %7, align 4
  call void @llvm.lifetime.start.p0(i64 4, ptr %8) #2
  call void @llvm.lifetime.start.p0(i64 4, ptr %9) #2
  %44 = load i32, ptr %3, align 4
  %45 = and i32 %44, 2
  %46 = icmp ne i32 %45, 0
  br i1 %46, label %47, label %49

47:                                               ; preds = %1
  %48 = load i32, ptr %7, align 4
  br label %50

49:                                               ; preds = %1
  br label %50

50:                                               ; preds = %49, %47
  %51 = phi i32 [ %48, %47 ], [ 255, %49 ]
  store i32 %51, ptr %9, align 4
  call void @llvm.lifetime.start.p0(i64 4, ptr %10) #2
  call void @llvm.lifetime.start.p0(i64 4, ptr %11) #2
  call void @llvm.lifetime.start.p0(i64 4, ptr %12) #2
  call void @llvm.lifetime.start.p0(i64 8, ptr %13) #2
  call void @llvm.lifetime.start.p0(i64 8, ptr %14) #2
  call void @llvm.lifetime.start.p0(i64 8, ptr %15) #2
  call void @llvm.lifetime.start.p0(i64 8, ptr %16) #2
  call void @llvm.lifetime.start.p0(i64 8, ptr %17) #2
  call void @llvm.lifetime.start.p0(i64 8, ptr %18) #2
  %52 = load ptr, ptr %2, align 8
  %53 = getelementptr inbounds nuw %struct.SDL_BlitInfo, ptr %52, i32 0, i32 3
  %54 = load i32, ptr %53, align 4
  %55 = sext i32 %54 to i64
  %56 = shl i64 %55, 16
  %57 = load ptr, ptr %2, align 8
  %58 = getelementptr inbounds nuw %struct.SDL_BlitInfo, ptr %57, i32 0, i32 9
  %59 = load i32, ptr %58, align 4
  %60 = sext i32 %59 to i64
  %61 = udiv i64 %56, %60
  store i64 %61, ptr %17, align 8
  %62 = load ptr, ptr %2, align 8
  %63 = getelementptr inbounds nuw %struct.SDL_BlitInfo, ptr %62, i32 0, i32 2
  %64 = load i32, ptr %63, align 8
  %65 = sext i32 %64 to i64
  %66 = shl i64 %65, 16
  %67 = load ptr, ptr %2, align 8
  %68 = getelementptr inbounds nuw %struct.SDL_BlitInfo, ptr %67, i32 0, i32 8
  %69 = load i32, ptr %68, align 8
  %70 = sext i32 %69 to i64
  %71 = udiv i64 %66, %70
  store i64 %71, ptr %18, align 8
  %72 = load i64, ptr %17, align 8
  %73 = udiv i64 %72, 2
  store i64 %73, ptr %15, align 8
  br label %74

74:                                               ; preds = %209, %50
  %75 = load ptr, ptr %2, align 8
  %76 = getelementptr inbounds nuw %struct.SDL_BlitInfo, ptr %75, i32 0, i32 9
  %77 = load i32, ptr %76, align 4
  %78 = add nsw i32 %77, -1
  store i32 %78, ptr %76, align 4
  %79 = icmp ne i32 %77, 0
  br i1 %79, label %80, label %221

80:                                               ; preds = %74
  call void @llvm.lifetime.start.p0(i64 8, ptr %19) #2
  store ptr null, ptr %19, align 8
  call void @llvm.lifetime.start.p0(i64 8, ptr %20) #2
  %81 = load ptr, ptr %2, align 8
  %82 = getelementptr inbounds nuw %struct.SDL_BlitInfo, ptr %81, i32 0, i32 7
  %83 = load ptr, ptr %82, align 8
  store ptr %83, ptr %20, align 8
  call void @llvm.lifetime.start.p0(i64 4, ptr %21) #2
  %84 = load ptr, ptr %2, align 8
  %85 = getelementptr inbounds nuw %struct.SDL_BlitInfo, ptr %84, i32 0, i32 8
  %86 = load i32, ptr %85, align 8
  store i32 %86, ptr %21, align 4
  %87 = load i64, ptr %18, align 8
  %88 = udiv i64 %87, 2
  store i64 %88, ptr %16, align 8
  %89 = load i64, ptr %15, align 8
  %90 = lshr i64 %89, 16
  store i64 %90, ptr %13, align 8
  br label %91

91:                                               ; preds = %191, %80
  %92 = load i32, ptr %21, align 4
  %93 = add nsw i32 %92, -1
  store i32 %93, ptr %21, align 4
  %94 = icmp ne i32 %92, 0
  br i1 %94, label %95, label %209

95:                                               ; preds = %91
  %96 = load i64, ptr %16, align 8
  %97 = lshr i64 %96, 16
  store i64 %97, ptr %14, align 8
  %98 = load ptr, ptr %2, align 8
  %99 = getelementptr inbounds nuw %struct.SDL_BlitInfo, ptr %98, i32 0, i32 1
  %100 = load ptr, ptr %99, align 8
  %101 = load i64, ptr %13, align 8
  %102 = load ptr, ptr %2, align 8
  %103 = getelementptr inbounds nuw %struct.SDL_BlitInfo, ptr %102, i32 0, i32 4
  %104 = load i32, ptr %103, align 8
  %105 = sext i32 %104 to i64
  %106 = mul i64 %101, %105
  %107 = getelementptr inbounds nuw i8, ptr %100, i64 %106
  %108 = load i64, ptr %14, align 8
  %109 = mul i64 %108, 4
  %110 = getelementptr inbounds nuw i8, ptr %107, i64 %109
  store ptr %110, ptr %19, align 8
  %111 = load ptr, ptr %19, align 8
  %112 = load i32, ptr %111, align 4
  store i32 %112, ptr %8, align 4
  %113 = load i32, ptr %8, align 4
  %114 = lshr i32 %113, 16
  %115 = trunc i32 %114 to i8
  %116 = zext i8 %115 to i32
  store i32 %116, ptr %10, align 4
  %117 = load i32, ptr %8, align 4
  %118 = lshr i32 %117, 8
  %119 = trunc i32 %118 to i8
  %120 = zext i8 %119 to i32
  store i32 %120, ptr %11, align 4
  %121 = load i32, ptr %8, align 4
  %122 = trunc i32 %121 to i8
  %123 = zext i8 %122 to i32
  store i32 %123, ptr %12, align 4
  %124 = load i32, ptr %3, align 4
  %125 = and i32 %124, 1
  %126 = icmp ne i32 %125, 0
  br i1 %126, label %127, label %191

127:                                              ; preds = %95
  br label %128

128:                                              ; preds = %127
  call void @llvm.lifetime.start.p0(i64 2, ptr %22) #2
  %129 = load i32, ptr %10, align 4
  %130 = load i32, ptr %4, align 4
  %131 = mul i32 %129, %130
  %132 = trunc i32 %131 to i16
  store i16 %132, ptr %22, align 2
  %133 = load i16, ptr %22, align 2
  %134 = zext i16 %133 to i32
  %135 = add i32 %134, 1
  %136 = trunc i32 %135 to i16
  store i16 %136, ptr %22, align 2
  %137 = load i16, ptr %22, align 2
  %138 = zext i16 %137 to i32
  %139 = ashr i32 %138, 8
  %140 = load i16, ptr %22, align 2
  %141 = zext i16 %140 to i32
  %142 = add nsw i32 %141, %139
  %143 = trunc i32 %142 to i16
  store i16 %143, ptr %22, align 2
  %144 = load i16, ptr %22, align 2
  %145 = zext i16 %144 to i32
  %146 = ashr i32 %145, 8
  store i32 %146, ptr %10, align 4
  call void @llvm.lifetime.end.p0(i64 2, ptr %22) #2
  br label %147

147:                                              ; preds = %128
  br label %148

148:                                              ; preds = %147
  br label %149

149:                                              ; preds = %148
  call void @llvm.lifetime.start.p0(i64 2, ptr %23) #2
  %150 = load i32, ptr %11, align 4
  %151 = load i32, ptr %5, align 4
  %152 = mul i32 %150, %151
  %153 = trunc i32 %152 to i16
  store i16 %153, ptr %23, align 2
  %154 = load i16, ptr %23, align 2
  %155 = zext i16 %154 to i32
  %156 = add i32 %155, 1
  %157 = trunc i32 %156 to i16
  store i16 %157, ptr %23, align 2
  %158 = load i16, ptr %23, align 2
  %159 = zext i16 %158 to i32
  %160 = ashr i32 %159, 8
  %161 = load i16, ptr %23, align 2
  %162 = zext i16 %161 to i32
  %163 = add nsw i32 %162, %160
  %164 = trunc i32 %163 to i16
  store i16 %164, ptr %23, align 2
  %165 = load i16, ptr %23, align 2
  %166 = zext i16 %165 to i32
  %167 = ashr i32 %166, 8
  store i32 %167, ptr %11, align 4
  call void @llvm.lifetime.end.p0(i64 2, ptr %23) #2
  br label %168

168:                                              ; preds = %149
  br label %169

169:                                              ; preds = %168
  br label %170

170:                                              ; preds = %169
  call void @llvm.lifetime.start.p0(i64 2, ptr %24) #2
  %171 = load i32, ptr %12, align 4
  %172 = load i32, ptr %6, align 4
  %173 = mul i32 %171, %172
  %174 = trunc i32 %173 to i16
  store i16 %174, ptr %24, align 2
  %175 = load i16, ptr %24, align 2
  %176 = zext i16 %175 to i32
  %177 = add i32 %176, 1
  %178 = trunc i32 %177 to i16
  store i16 %178, ptr %24, align 2
  %179 = load i16, ptr %24, align 2
  %180 = zext i16 %179 to i32
  %181 = ashr i32 %180, 8
  %182 = load i16, ptr %24, align 2
  %183 = zext i16 %182 to i32
  %184 = add nsw i32 %183, %181
  %185 = trunc i32 %184 to i16
  store i16 %185, ptr %24, align 2
  %186 = load i16, ptr %24, align 2
  %187 = zext i16 %186 to i32
  %188 = ashr i32 %187, 8
  store i32 %188, ptr %12, align 4
  call void @llvm.lifetime.end.p0(i64 2, ptr %24) #2
  br label %189

189:                                              ; preds = %170
  br label %190

190:                                              ; preds = %189
  br label %191

191:                                              ; preds = %190, %95
  %192 = load i32, ptr %9, align 4
  %193 = shl i32 %192, 24
  %194 = load i32, ptr %12, align 4
  %195 = shl i32 %194, 16
  %196 = or i32 %193, %195
  %197 = load i32, ptr %11, align 4
  %198 = shl i32 %197, 8
  %199 = or i32 %196, %198
  %200 = load i32, ptr %10, align 4
  %201 = or i32 %199, %200
  store i32 %201, ptr %8, align 4
  %202 = load i32, ptr %8, align 4
  %203 = load ptr, ptr %20, align 8
  store i32 %202, ptr %203, align 4
  %204 = load i64, ptr %18, align 8
  %205 = load i64, ptr %16, align 8
  %206 = add i64 %205, %204
  store i64 %206, ptr %16, align 8
  %207 = load ptr, ptr %20, align 8
  %208 = getelementptr inbounds nuw i32, ptr %207, i32 1
  store ptr %208, ptr %20, align 8
  br label %91, !llvm.loop !54

209:                                              ; preds = %91
  %210 = load i64, ptr %17, align 8
  %211 = load i64, ptr %15, align 8
  %212 = add i64 %211, %210
  store i64 %212, ptr %15, align 8
  %213 = load ptr, ptr %2, align 8
  %214 = getelementptr inbounds nuw %struct.SDL_BlitInfo, ptr %213, i32 0, i32 10
  %215 = load i32, ptr %214, align 8
  %216 = load ptr, ptr %2, align 8
  %217 = getelementptr inbounds nuw %struct.SDL_BlitInfo, ptr %216, i32 0, i32 7
  %218 = load ptr, ptr %217, align 8
  %219 = sext i32 %215 to i64
  %220 = getelementptr inbounds i8, ptr %218, i64 %219
  store ptr %220, ptr %217, align 8
  call void @llvm.lifetime.end.p0(i64 4, ptr %21) #2
  call void @llvm.lifetime.end.p0(i64 8, ptr %20) #2
  call void @llvm.lifetime.end.p0(i64 8, ptr %19) #2
  br label %74, !llvm.loop !55

221:                                              ; preds = %74
  call void @llvm.lifetime.end.p0(i64 8, ptr %18) #2
  call void @llvm.lifetime.end.p0(i64 8, ptr %17) #2
  call void @llvm.lifetime.end.p0(i64 8, ptr %16) #2
  call void @llvm.lifetime.end.p0(i64 8, ptr %15) #2
  call void @llvm.lifetime.end.p0(i64 8, ptr %14) #2
  call void @llvm.lifetime.end.p0(i64 8, ptr %13) #2
  call void @llvm.lifetime.end.p0(i64 4, ptr %12) #2
  call void @llvm.lifetime.end.p0(i64 4, ptr %11) #2
  call void @llvm.lifetime.end.p0(i64 4, ptr %10) #2
  call void @llvm.lifetime.end.p0(i64 4, ptr %9) #2
  call void @llvm.lifetime.end.p0(i64 4, ptr %8) #2
  call void @llvm.lifetime.end.p0(i64 4, ptr %7) #2
  call void @llvm.lifetime.end.p0(i64 4, ptr %6) #2
  call void @llvm.lifetime.end.p0(i64 4, ptr %5) #2
  call void @llvm.lifetime.end.p0(i64 4, ptr %4) #2
  call void @llvm.lifetime.end.p0(i64 4, ptr %3) #2
  ret void
}