; Function Attrs: nofree norecurse nosync nounwind memory(readwrite, inaccessiblemem: none) uwtable
define internal void @SDL_Blit_XRGB8888_ABGR8888_Modulate_Scale(ptr noundef captures(none) %0) #0 {
  %2 = getelementptr inbounds nuw i8, ptr %0, i64 112
  %3 = load i32, ptr %2, align 8
  %4 = getelementptr inbounds nuw i8, ptr %0, i64 120
  %5 = load i8, ptr %4, align 8
  %6 = zext i8 %5 to i32
  %7 = getelementptr inbounds nuw i8, ptr %0, i64 121
  %8 = load i8, ptr %7, align 1
  %9 = zext i8 %8 to i32
  %10 = getelementptr inbounds nuw i8, ptr %0, i64 122
  %11 = load i8, ptr %10, align 2
  %12 = zext i8 %11 to i32
  %13 = getelementptr inbounds nuw i8, ptr %0, i64 123
  %14 = load i8, ptr %13, align 1
  %15 = getelementptr inbounds nuw i8, ptr %0, i64 20
  %16 = load i32, ptr %15, align 4
  %17 = sext i32 %16 to i64
  %18 = shl nsw i64 %17, 16
  %19 = getelementptr inbounds nuw i8, ptr %0, i64 52
  %20 = load i32, ptr %19, align 4
  %21 = sext i32 %20 to i64
  %22 = udiv i64 %18, %21
  %23 = getelementptr inbounds nuw i8, ptr %0, i64 16
  %24 = load i32, ptr %23, align 8
  %25 = sext i32 %24 to i64
  %26 = shl nsw i64 %25, 16
  %27 = getelementptr inbounds nuw i8, ptr %0, i64 48
  %28 = load i32, ptr %27, align 8
  %29 = sext i32 %28 to i64
  %30 = udiv i64 %26, %29
  %31 = add nsw i32 %20, -1
  store i32 %31, ptr %19, align 4
  %.not6470 = icmp eq i32 %20, 0
  br i1 %.not6470, label %._crit_edge74, label %.lr.ph73

.lr.ph73:                                         ; preds = %1
  %32 = and i32 %3, 2
  %.not = icmp eq i32 %32, 0
  %33 = zext i8 %14 to i32
  %34 = getelementptr inbounds nuw i8, ptr %0, i64 40
  %35 = lshr i64 %30, 1
  %36 = getelementptr inbounds nuw i8, ptr %0, i64 8
  %37 = getelementptr inbounds nuw i8, ptr %0, i64 24
  %38 = and i32 %3, 1
  %.not66 = icmp eq i32 %38, 0
  %39 = shl nuw i32 %33, 24
  %40 = select i1 %.not, i32 -16777216, i32 %39
  %41 = getelementptr inbounds nuw i8, ptr %0, i64 56
  %42 = icmp eq i32 %28, 0
  br i1 %42, label %.lr.ph73.split.us, label %.lr.ph73.split.preheader

.lr.ph73.split.preheader:                         ; preds = %.lr.ph73
  %43 = lshr i64 %22, 1
  br label %.lr.ph73.split

.lr.ph73.split.us:                                ; preds = %.lr.ph73
  %44 = load i32, ptr %41, align 8
  %45 = sext i32 %44 to i64
  %.promoted = load ptr, ptr %34, align 8
  %46 = zext i32 %20 to i64
  %47 = mul nsw i64 %46, %45
  %scevgep = getelementptr i8, ptr %.promoted, i64 %47
  store ptr %scevgep, ptr %34, align 8
  store i32 -1, ptr %19, align 4
  br label %._crit_edge74

.lr.ph73.split:                                   ; preds = %.lr.ph73.split.preheader, %._crit_edge
  %.06271 = phi i64 [ %112, %._crit_edge ], [ %43, %.lr.ph73.split.preheader ]
  %48 = load i32, ptr %27, align 8
  %49 = lshr i64 %.06271, 16
  %.not6567 = icmp eq i32 %48, 0
  br i1 %.not6567, label %._crit_edge, label %.lr.ph

.lr.ph:                                           ; preds = %.lr.ph73.split
  %50 = add nsw i32 %48, -1
  %51 = load ptr, ptr %34, align 8
  br i1 %.not66, label %.lr.ph.split.us, label %.lr.ph.split

.lr.ph.split.us:                                  ; preds = %.lr.ph, %.lr.ph.split.us
  %52 = phi i32 [ %72, %.lr.ph.split.us ], [ %50, %.lr.ph ]
  %.06069.us = phi ptr [ %71, %.lr.ph.split.us ], [ %51, %.lr.ph ]
  %.06368.us = phi i64 [ %70, %.lr.ph.split.us ], [ %35, %.lr.ph ]
  %53 = load ptr, ptr %36, align 8
  %54 = load i32, ptr %37, align 8
  %55 = sext i32 %54 to i64
  %56 = mul i64 %49, %55
  %57 = getelementptr inbounds nuw i8, ptr %53, i64 %56
  %58 = lshr i64 %.06368.us, 14
  %59 = and i64 %58, 1125899906842620
  %60 = getelementptr inbounds nuw i8, ptr %57, i64 %59
  %61 = load i32, ptr %60, align 4
  %62 = lshr i32 %61, 16
  %63 = and i32 %62, 255
  %64 = and i32 %61, 65280
  %65 = shl i32 %61, 16
  %66 = and i32 %65, 16711680
  %67 = or disjoint i32 %66, %64
  %68 = or disjoint i32 %67, %63
  %69 = or disjoint i32 %68, %40
  store i32 %69, ptr %.06069.us, align 4
  %70 = add i64 %.06368.us, %30
  %71 = getelementptr inbounds nuw i8, ptr %.06069.us, i64 4
  %72 = add nsw i32 %52, -1
  %.not65.us = icmp eq i32 %52, 0
  br i1 %.not65.us, label %._crit_edge, label %.lr.ph.split.us, !llvm.loop !55

.lr.ph.split:                                     ; preds = %.lr.ph, %.lr.ph.split
  %73 = phi i32 [ %111, %.lr.ph.split ], [ %50, %.lr.ph ]
  %.06069 = phi ptr [ %110, %.lr.ph.split ], [ %51, %.lr.ph ]
  %.06368 = phi i64 [ %109, %.lr.ph.split ], [ %35, %.lr.ph ]
  %74 = load ptr, ptr %36, align 8
  %75 = load i32, ptr %37, align 8
  %76 = sext i32 %75 to i64
  %77 = mul i64 %49, %76
  %78 = getelementptr inbounds nuw i8, ptr %74, i64 %77
  %79 = lshr i64 %.06368, 14
  %80 = and i64 %79, 1125899906842620
  %81 = getelementptr inbounds nuw i8, ptr %78, i64 %80
  %82 = load i32, ptr %81, align 4
  %83 = lshr i32 %82, 16
  %84 = and i32 %83, 255
  %85 = lshr i32 %82, 8
  %86 = and i32 %85, 255
  %87 = and i32 %82, 255
  %88 = mul nuw nsw i32 %84, %6
  %89 = add nuw nsw i32 %88, 1
  %90 = lshr i32 %89, 8
  %91 = and i32 %90, 255
  %92 = add nuw nsw i32 %91, %89
  %93 = lshr i32 %92, 8
  %94 = and i32 %93, 255
  %95 = mul nuw nsw i32 %86, %9
  %96 = add nuw nsw i32 %95, 1
  %97 = lshr i32 %96, 8
  %98 = and i32 %97, 255
  %99 = add nuw nsw i32 %98, %96
  %100 = and i32 %99, 65280
  %101 = mul nuw nsw i32 %87, %12
  %102 = add nuw nsw i32 %101, 1
  %103 = shl nuw nsw i32 %102, 8
  %.mask = and i32 %102, 65280
  %104 = add nuw nsw i32 %.mask, %103
  %105 = and i32 %104, 16711680
  %106 = or disjoint i32 %105, %100
  %107 = or disjoint i32 %106, %94
  %108 = or disjoint i32 %107, %40
  store i32 %108, ptr %.06069, align 4
  %109 = add i64 %.06368, %30
  %110 = getelementptr inbounds nuw i8, ptr %.06069, i64 4
  %111 = add nsw i32 %73, -1
  %.not65 = icmp eq i32 %73, 0
  br i1 %.not65, label %._crit_edge, label %.lr.ph.split, !llvm.loop !55

._crit_edge:                                      ; preds = %.lr.ph.split, %.lr.ph.split.us, %.lr.ph73.split
  %112 = add i64 %.06271, %22
  %113 = load i32, ptr %41, align 8
  %114 = load ptr, ptr %34, align 8
  %115 = sext i32 %113 to i64
  %116 = getelementptr inbounds i8, ptr %114, i64 %115
  store ptr %116, ptr %34, align 8
  %117 = load i32, ptr %19, align 4
  %118 = add nsw i32 %117, -1
  store i32 %118, ptr %19, align 4
  %.not64 = icmp eq i32 %117, 0
  br i1 %.not64, label %._crit_edge74, label %.lr.ph73.split, !llvm.loop !56

._crit_edge74:                                    ; preds = %._crit_edge, %.lr.ph73.split.us, %1
  ret void
}